target datalayout = "e-m:e-p270:32:32-p271:32:32-p272:64:64-i64:64-i128:128-f80:128-n8:16:32:64-S128"
target triple = "x86_64-pc-linux-gnu"

; Function Attrs: nounwind uwtable
define internal void @inflate16(ptr noundef %0, ptr noundef %1, i32 noundef %2, i32 noundef %3, ptr noundef %4, i32 noundef %5, i32 noundef %6) #1 {
  %8 = alloca ptr, align 8
  %9 = alloca ptr, align 8
  %10 = alloca i32, align 4
  %11 = alloca i32, align 4
  %12 = alloca ptr, align 8
  %13 = alloca i32, align 4
  %14 = alloca i32, align 4
  %15 = alloca ptr, align 8
  %16 = alloca i32, align 4
  %17 = alloca i32, align 4
  %18 = alloca i32, align 4
  %19 = alloca i32, align 4
  store ptr %0, ptr %8, align 8, !tbaa !64
  store ptr %1, ptr %9, align 8, !tbaa !64
  store i32 %2, ptr %10, align 4, !tbaa !42
  store i32 %3, ptr %11, align 4, !tbaa !42
  store ptr %4, ptr %12, align 8, !tbaa !69
  store i32 %5, ptr %13, align 4, !tbaa !42
  store i32 %6, ptr %14, align 4, !tbaa !42
  call void @llvm.lifetime.start.p0(i64 8, ptr %15) #5
  %20 = load ptr, ptr %8, align 8, !tbaa !64
  store ptr %20, ptr %15, align 8, !tbaa !71
  call void @llvm.lifetime.start.p0(i64 4, ptr %16) #5
  call void @llvm.lifetime.start.p0(i64 4, ptr %17) #5
  store i32 0, ptr %16, align 4, !tbaa !42
  br label %21

21:                                               ; preds = %129, %7
  %22 = load i32, ptr %16, align 4, !tbaa !42
  %23 = load i32, ptr %10, align 4, !tbaa !42
  %24 = icmp slt i32 %22, %23
  br i1 %24, label %25, label %132

25:                                               ; preds = %21
  call void @llvm.lifetime.start.p0(i64 4, ptr %18) #5
  store i32 0, ptr %18, align 4, !tbaa !42
  call void @llvm.lifetime.start.p0(i64 4, ptr %19) #5
  %26 = load ptr, ptr %9, align 8, !tbaa !64
  %27 = load i32, ptr %16, align 4, !tbaa !42
  %28 = mul nsw i32 2, %27
  %29 = sext i32 %28 to i64
  %30 = getelementptr inbounds i8, ptr %26, i64 %29
  %31 = load i16, ptr %30, align 2, !tbaa !73
  %32 = zext i16 %31 to i32
  %33 = load i32, ptr %11, align 4, !tbaa !42
  %34 = add nsw i32 %32, %33
  %35 = load i32, ptr %14, align 4, !tbaa !42
  %36 = icmp sgt i32 %34, %35
  br i1 %36, label %37, label %39

37:                                               ; preds = %25
  %38 = load i32, ptr %14, align 4, !tbaa !42
  br label %49

39:                                               ; preds = %25
  %40 = load ptr, ptr %9, align 8, !tbaa !64
  %41 = load i32, ptr %16, align 4, !tbaa !42
  %42 = mul nsw i32 2, %41
  %43 = sext i32 %42 to i64
  %44 = getelementptr inbounds i8, ptr %40, i64 %43
  %45 = load i16, ptr %44, align 2, !tbaa !73
  %46 = zext i16 %45 to i32
  %47 = load i32, ptr %11, align 4, !tbaa !42
  %48 = add nsw i32 %46, %47
  br label %49

49:                                               ; preds = %39, %37
  %50 = phi i32 [ %38, %37 ], [ %48, %39 ]
  store i32 %50, ptr %19, align 4, !tbaa !42
  store i32 0, ptr %17, align 4, !tbaa !42
  br label %51

51:                                               ; preds = %55, %49
  %52 = load i32, ptr %17, align 4, !tbaa !42
  %53 = icmp slt i32 %52, 8
  br i1 %53, label %54, label %70

54:                                               ; preds = %51
  br label %55

55:                                               ; preds = %54
  %56 = load ptr, ptr %12, align 8, !tbaa !69
  %57 = load i32, ptr %17, align 4, !tbaa !42
  %58 = add nsw i32 %57, 1
  store i32 %58, ptr %17, align 4, !tbaa !42
  %59 = sext i32 %57 to i64
  %60 = getelementptr inbounds ptr, ptr %56, i64 %59
  %61 = load ptr, ptr %60, align 8, !tbaa !64
  %62 = load i32, ptr %16, align 4, !tbaa !42
  %63 = mul nsw i32 %62, 2
  %64 = sext i32 %63 to i64
  %65 = getelementptr inbounds i8, ptr %61, i64 %64
  %66 = load i16, ptr %65, align 2, !tbaa !73
  %67 = zext i16 %66 to i32
  %68 = load i32, ptr %18, align 4, !tbaa !42
  %69 = add nsw i32 %68, %67
  store i32 %69, ptr %18, align 4, !tbaa !42
  br label %51, !llvm.loop !88

70:                                               ; preds = %51
  %71 = load i32, ptr %18, align 4, !tbaa !42
  %72 = sdiv i32 %71, 8
  %73 = load ptr, ptr %9, align 8, !tbaa !64
  %74 = load i32, ptr %16, align 4, !tbaa !42
  %75 = mul nsw i32 %74, 2
  %76 = sext i32 %75 to i64
  %77 = getelementptr inbounds i8, ptr %73, i64 %76
  %78 = load i16, ptr %77, align 2, !tbaa !73
  %79 = zext i16 %78 to i32
  %80 = icmp sgt i32 %72, %79
  br i1 %80, label %81, label %84

81:                                               ; preds = %70
  %82 = load i32, ptr %18, align 4, !tbaa !42
  %83 = sdiv i32 %82, 8
  br label %92

84:                                               ; preds = %70
  %85 = load ptr, ptr %9, align 8, !tbaa !64
  %86 = load i32, ptr %16, align 4, !tbaa !42
  %87 = mul nsw i32 %86, 2
  %88 = sext i32 %87 to i64
  %89 = getelementptr inbounds i8, ptr %85, i64 %88
  %90 = load i16, ptr %89, align 2, !tbaa !73
  %91 = zext i16 %90 to i32
  br label %92

92:                                               ; preds = %84, %81
  %93 = phi i32 [ %83, %81 ], [ %91, %84 ]
  %94 = load i32, ptr %19, align 4, !tbaa !42
  %95 = icmp sgt i32 %93, %94
  br i1 %95, label %96, label %98

96:                                               ; preds = %92
  %97 = load i32, ptr %19, align 4, !tbaa !42
  br label %122

98:                                               ; preds = %92
  %99 = load i32, ptr %18, align 4, !tbaa !42
  %100 = sdiv i32 %99, 8
  %101 = load ptr, ptr %9, align 8, !tbaa !64
  %102 = load i32, ptr %16, align 4, !tbaa !42
  %103 = mul nsw i32 %102, 2
  %104 = sext i32 %103 to i64
  %105 = getelementptr inbounds i8, ptr %101, i64 %104
  %106 = load i16, ptr %105, align 2, !tbaa !73
  %107 = zext i16 %106 to i32
  %108 = icmp sgt i32 %100, %107
  br i1 %108, label %109, label %112

109:                                              ; preds = %98
  %110 = load i32, ptr %18, align 4, !tbaa !42
  %111 = sdiv i32 %110, 8
  br label %120

112:                                              ; preds = %98
  %113 = load ptr, ptr %9, align 8, !tbaa !64
  %114 = load i32, ptr %16, align 4, !tbaa !42
  %115 = mul nsw i32 %114, 2
  %116 = sext i32 %115 to i64
  %117 = getelementptr inbounds i8, ptr %113, i64 %116
  %118 = load i16, ptr %117, align 2, !tbaa !73
  %119 = zext i16 %118 to i32
  br label %120

120:                                              ; preds = %112, %109
  %121 = phi i32 [ %111, %109 ], [ %119, %112 ]
  br label %122

122:                                              ; preds = %120, %96
  %123 = phi i32 [ %97, %96 ], [ %121, %120 ]
  %124 = trunc i32 %123 to i16
  %125 = load ptr, ptr %15, align 8, !tbaa !71
  %126 = load i32, ptr %16, align 4, !tbaa !42
  %127 = sext i32 %126 to i64
  %128 = getelementptr inbounds i16, ptr %125, i64 %127
  store i16 %124, ptr %128, align 2, !tbaa !75
  call void @llvm.lifetime.end.p0(i64 4, ptr %19) #5
  call void @llvm.lifetime.end.p0(i64 4, ptr %18) #5
  br label %129

129:                                              ; preds = %122
  %130 = load i32, ptr %16, align 4, !tbaa !42
  %131 = add nsw i32 %130, 1
  store i32 %131, ptr %16, align 4, !tbaa !42
  br label %21, !llvm.loop !89

132:                                              ; preds = %21
  call void @llvm.lifetime.end.p0(i64 4, ptr %17) #5
  call void @llvm.lifetime.end.p0(i64 4, ptr %16) #5
  call void @llvm.lifetime.end.p0(i64 8, ptr %15) #5
  ret void
}